target datalayout = "e-m:e-p270:32:32-p271:32:32-p272:64:64-i64:64-f80:128-n8:16:32:64-S128"
target triple = "x86_64-pc-linux-gnu"

@.str = private unnamed_addr constant [4 x i8] c"%s\0A\00", align 1
@.str.1 = private unnamed_addr constant [3 x i8] c"%s\00", align 1

; Function Attrs: noinline nounwind uwtable
define dso_local i32 @main() #0 {
  %1 = alloca i32, align 4
  %2 = alloca i32, align 4
  %3 = alloca i32, align 4
  %4 = alloca i32, align 4
  %5 = alloca i32, align 4
  %6 = alloca i32, align 4
  %7 = alloca i32, align 4
  %8 = alloca i32, align 4
  %9 = alloca i32, align 4
  %10 = alloca [100 x i32], align 16
  %11 = alloca [100 x [20 x i8]], align 16
  %12 = alloca [20 x i8], align 16
  %13 = alloca [2000 x i8], align 16
  store i32 0, i32* %1, align 4
  store i32 0, i32* %3, align 4
  store i32 -1, i32* %4, align 4
  %14 = getelementptr inbounds [2000 x i8], [2000 x i8]* %13, i64 0, i64 0
  %15 = call i32 (i8*, ...) bitcast (i32 (...)* @gets to i32 (i8*, ...)*)(i8* %14)
  %16 = getelementptr inbounds [2000 x i8], [2000 x i8]* %13, i64 0, i64 0
  %17 = call i64 @strlen(i8* %16) #4
  %18 = trunc i64 %17 to i32
  store i32 %18, i32* %5, align 4
  store i32 0, i32* %2, align 4
  br label %19

19:                                               ; preds = %108, %0
  %20 = load i32, i32* %2, align 4
  %21 = load i32, i32* %5, align 4
  %22 = icmp slt i32 %20, %21
  br i1 %22, label %23, label %111

23:                                               ; preds = %19
  %24 = load i32, i32* %2, align 4
  %25 = sext i32 %24 to i64
  %26 = getelementptr inbounds [2000 x i8], [2000 x i8]* %13, i64 0, i64 %25
  %27 = load i8, i8* %26, align 1
  %28 = sext i8 %27 to i32
  %29 = icmp eq i32 %28, 32
  br i1 %29, label %30, label %38

30:                                               ; preds = %23
  %31 = load i32, i32* %2, align 4
  %32 = add nsw i32 %31, 1
  %33 = sext i32 %32 to i64
  %34 = getelementptr inbounds [2000 x i8], [2000 x i8]* %13, i64 0, i64 %33
  %35 = load i8, i8* %34, align 1
  %36 = sext i8 %35 to i32
  %37 = icmp ne i32 %36, 32
  br i1 %37, label %48, label %38

38:                                               ; preds = %30, %23
  %39 = load i32, i32* %2, align 4
  %40 = icmp eq i32 %39, 0
  br i1 %40, label %41, label %51

41:                                               ; preds = %38
  %42 = load i32, i32* %2, align 4
  %43 = sext i32 %42 to i64
  %44 = getelementptr inbounds [2000 x i8], [2000 x i8]* %13, i64 0, i64 %43
  %45 = load i8, i8* %44, align 1
  %46 = sext i8 %45 to i32
  %47 = icmp ne i32 %46, 32
  br i1 %47, label %48, label %51

48:                                               ; preds = %41, %30
  %49 = load i32, i32* %4, align 4
  %50 = add nsw i32 %49, 1
  store i32 %50, i32* %4, align 4
  br label %51

51:                                               ; preds = %48, %41, %38
  %52 = load i32, i32* %2, align 4
  %53 = sext i32 %52 to i64
  %54 = getelementptr inbounds [2000 x i8], [2000 x i8]* %13, i64 0, i64 %53
  %55 = load i8, i8* %54, align 1
  %56 = sext i8 %55 to i32
  %57 = icmp eq i32 %56, 32
  br i1 %57, label %58, label %59

58:                                               ; preds = %51
  store i32 0, i32* %3, align 4
  br label %79

59:                                               ; preds = %51
  %60 = load i32, i32* %3, align 4
  %61 = add nsw i32 %60, 1
  store i32 %61, i32* %3, align 4
  %62 = load i32, i32* %2, align 4
  %63 = sext i32 %62 to i64
  %64 = getelementptr inbounds [2000 x i8], [2000 x i8]* %13, i64 0, i64 %63
  %65 = load i8, i8* %64, align 1
  %66 = load i32, i32* %4, align 4
  %67 = sext i32 %66 to i64
  %68 = getelementptr inbounds [100 x [20 x i8]], [100 x [20 x i8]]* %11, i64 0, i64 %67
  %69 = load i32, i32* %3, align 4
  %70 = sub nsw i32 %69, 1
  %71 = sext i32 %70 to i64
  %72 = getelementptr inbounds [20 x i8], [20 x i8]* %68, i64 0, i64 %71
  store i8 %65, i8* %72, align 1
  %73 = load i32, i32* %4, align 4
  %74 = sext i32 %73 to i64
  %75 = getelementptr inbounds [100 x [20 x i8]], [100 x [20 x i8]]* %11, i64 0, i64 %74
  %76 = load i32, i32* %3, align 4
  %77 = sext i32 %76 to i64
  %78 = getelementptr inbounds [20 x i8], [20 x i8]* %75, i64 0, i64 %77
  store i8 0, i8* %78, align 1
  br label %79

79:                                               ; preds = %59, %58
  %80 = load i32, i32* %2, align 4
  %81 = sext i32 %80 to i64
  %82 = getelementptr inbounds [2000 x i8], [2000 x i8]* %13, i64 0, i64 %81
  %83 = load i8, i8* %82, align 1
  %84 = sext i8 %83 to i32
  %85 = icmp ne i32 %84, 32
  br i1 %85, label %86, label %94

86:                                               ; preds = %79
  %87 = load i32, i32* %2, align 4
  %88 = add nsw i32 %87, 1
  %89 = sext i32 %88 to i64
  %90 = getelementptr inbounds [2000 x i8], [2000 x i8]* %13, i64 0, i64 %89
  %91 = load i8, i8* %90, align 1
  %92 = sext i8 %91 to i32
  %93 = icmp eq i32 %92, 32
  br i1 %93, label %102, label %94

94:                                               ; preds = %86, %79
  %95 = load i32, i32* %2, align 4
  %96 = add nsw i32 %95, 1
  %97 = sext i32 %96 to i64
  %98 = getelementptr inbounds [2000 x i8], [2000 x i8]* %13, i64 0, i64 %97
  %99 = load i8, i8* %98, align 1
  %100 = sext i8 %99 to i32
  %101 = icmp eq i32 %100, 0
  br i1 %101, label %102, label %107

102:                                              ; preds = %94, %86
  %103 = load i32, i32* %3, align 4
  %104 = load i32, i32* %4, align 4
  %105 = sext i32 %104 to i64
  %106 = getelementptr inbounds [100 x i32], [100 x i32]* %10, i64 0, i64 %105
  store i32 %103, i32* %106, align 4
  br label %107

107:                                              ; preds = %102, %94
  br label %108

108:                                              ; preds = %107
  %109 = load i32, i32* %2, align 4
  %110 = add nsw i32 %109, 1
  store i32 %110, i32* %2, align 4
  br label %19

111:                                              ; preds = %19
  %112 = load i32, i32* %4, align 4
  %113 = add nsw i32 %112, 1
  store i32 %113, i32* %9, align 4
  store i32 1, i32* %6, align 4
  br label %114

114:                                              ; preds = %182, %111
  %115 = load i32, i32* %6, align 4
  %116 = load i32, i32* %9, align 4
  %117 = icmp sle i32 %115, %116
  br i1 %117, label %118, label %185

118:                                              ; preds = %114
  store i32 0, i32* %7, align 4
  br label %119

119:                                              ; preds = %178, %118
  %120 = load i32, i32* %7, align 4
  %121 = load i32, i32* %9, align 4
  %122 = load i32, i32* %6, align 4
  %123 = sub nsw i32 %121, %122
  %124 = icmp slt i32 %120, %123
  br i1 %124, label %125, label %181

125:                                              ; preds = %119
  %126 = load i32, i32* %7, align 4
  %127 = sext i32 %126 to i64
  %128 = getelementptr inbounds [100 x i32], [100 x i32]* %10, i64 0, i64 %127
  %129 = load i32, i32* %128, align 4
  %130 = load i32, i32* %7, align 4
  %131 = add nsw i32 %130, 1
  %132 = sext i32 %131 to i64
  %133 = getelementptr inbounds [100 x i32], [100 x i32]* %10, i64 0, i64 %132
  %134 = load i32, i32* %133, align 4
  %135 = icmp slt i32 %129, %134
  br i1 %135, label %136, label %177

136:                                              ; preds = %125
  %137 = load i32, i32* %7, align 4
  %138 = add nsw i32 %137, 1
  %139 = sext i32 %138 to i64
  %140 = getelementptr inbounds [100 x i32], [100 x i32]* %10, i64 0, i64 %139
  %141 = load i32, i32* %140, align 4
  store i32 %141, i32* %8, align 4
  %142 = load i32, i32* %7, align 4
  %143 = sext i32 %142 to i64
  %144 = getelementptr inbounds [100 x i32], [100 x i32]* %10, i64 0, i64 %143
  %145 = load i32, i32* %144, align 4
  %146 = load i32, i32* %7, align 4
  %147 = add nsw i32 %146, 1
  %148 = sext i32 %147 to i64
  %149 = getelementptr inbounds [100 x i32], [100 x i32]* %10, i64 0, i64 %148
  store i32 %145, i32* %149, align 4
  %150 = load i32, i32* %8, align 4
  %151 = load i32, i32* %7, align 4
  %152 = sext i32 %151 to i64
  %153 = getelementptr inbounds [100 x i32], [100 x i32]* %10, i64 0, i64 %152
  store i32 %150, i32* %153, align 4
  %154 = getelementptr inbounds [20 x i8], [20 x i8]* %12, i64 0, i64 0
  %155 = load i32, i32* %7, align 4
  %156 = add nsw i32 %155, 1
  %157 = sext i32 %156 to i64
  %158 = getelementptr inbounds [100 x [20 x i8]], [100 x [20 x i8]]* %11, i64 0, i64 %157
  %159 = getelementptr inbounds [20 x i8], [20 x i8]* %158, i64 0, i64 0
  %160 = call i8* @strcpy(i8* %154, i8* %159) #5
  %161 = load i32, i32* %7, align 4
  %162 = add nsw i32 %161, 1
  %163 = sext i32 %162 to i64
  %164 = getelementptr inbounds [100 x [20 x i8]], [100 x [20 x i8]]* %11, i64 0, i64 %163
  %165 = getelementptr inbounds [20 x i8], [20 x i8]* %164, i64 0, i64 0
  %166 = load i32, i32* %7, align 4
  %167 = sext i32 %166 to i64
  %168 = getelementptr inbounds [100 x [20 x i8]], [100 x [20 x i8]]* %11, i64 0, i64 %167
  %169 = getelementptr inbounds [20 x i8], [20 x i8]* %168, i64 0, i64 0
  %170 = call i8* @strcpy(i8* %165, i8* %169) #5
  %171 = load i32, i32* %7, align 4
  %172 = sext i32 %171 to i64
  %173 = getelementptr inbounds [100 x [20 x i8]], [100 x [20 x i8]]* %11, i64 0, i64 %172
  %174 = getelementptr inbounds [20 x i8], [20 x i8]* %173, i64 0, i64 0
  %175 = getelementptr inbounds [20 x i8], [20 x i8]* %12, i64 0, i64 0
  %176 = call i8* @strcpy(i8* %174, i8* %175) #5
  br label %177

177:                                              ; preds = %136, %125
  br label %178

178:                                              ; preds = %177
  %179 = load i32, i32* %7, align 4
  %180 = add nsw i32 %179, 1
  store i32 %180, i32* %7, align 4
  br label %119

181:                                              ; preds = %119
  br label %182

182:                                              ; preds = %181
  %183 = load i32, i32* %6, align 4
  %184 = add nsw i32 %183, 1
  store i32 %184, i32* %6, align 4
  br label %114

185:                                              ; preds = %114
  %186 = getelementptr inbounds [100 x [20 x i8]], [100 x [20 x i8]]* %11, i64 0, i64 0
  %187 = getelementptr inbounds [20 x i8], [20 x i8]* %186, i64 0, i64 0
  %188 = call i32 (i8*, ...) @printf(i8* getelementptr inbounds ([4 x i8], [4 x i8]* @.str, i64 0, i64 0), i8* %187)
  store i32 1, i32* %6, align 4
  br label %189

189:                                              ; preds = %257, %185
  %190 = load i32, i32* %6, align 4
  %191 = load i32, i32* %9, align 4
  %192 = icmp sle i32 %190, %191
  br i1 %192, label %193, label %260

193:                                              ; preds = %189
  store i32 0, i32* %7, align 4
  br label %194

194:                                              ; preds = %253, %193
  %195 = load i32, i32* %7, align 4
  %196 = load i32, i32* %9, align 4
  %197 = load i32, i32* %6, align 4
  %198 = sub nsw i32 %196, %197
  %199 = icmp slt i32 %195, %198
  br i1 %199, label %200, label %256

200:                                              ; preds = %194
  %201 = load i32, i32* %7, align 4
  %202 = sext i32 %201 to i64
  %203 = getelementptr inbounds [100 x i32], [100 x i32]* %10, i64 0, i64 %202
  %204 = load i32, i32* %203, align 4
  %205 = load i32, i32* %7, align 4
  %206 = add nsw i32 %205, 1
  %207 = sext i32 %206 to i64
  %208 = getelementptr inbounds [100 x i32], [100 x i32]* %10, i64 0, i64 %207
  %209 = load i32, i32* %208, align 4
  %210 = icmp sgt i32 %204, %209
  br i1 %210, label %211, label %252

211:                                              ; preds = %200
  %212 = load i32, i32* %7, align 4
  %213 = add nsw i32 %212, 1
  %214 = sext i32 %213 to i64
  %215 = getelementptr inbounds [100 x i32], [100 x i32]* %10, i64 0, i64 %214
  %216 = load i32, i32* %215, align 4
  store i32 %216, i32* %8, align 4
  %217 = load i32, i32* %7, align 4
  %218 = sext i32 %217 to i64
  %219 = getelementptr inbounds [100 x i32], [100 x i32]* %10, i64 0, i64 %218
  %220 = load i32, i32* %219, align 4
  %221 = load i32, i32* %7, align 4
  %222 = add nsw i32 %221, 1
  %223 = sext i32 %222 to i64
  %224 = getelementptr inbounds [100 x i32], [100 x i32]* %10, i64 0, i64 %223
  store i32 %220, i32* %224, align 4
  %225 = load i32, i32* %8, align 4
  %226 = load i32, i32* %7, align 4
  %227 = sext i32 %226 to i64
  %228 = getelementptr inbounds [100 x i32], [100 x i32]* %10, i64 0, i64 %227
  store i32 %225, i32* %228, align 4
  %229 = getelementptr inbounds [20 x i8], [20 x i8]* %12, i64 0, i64 0
  %230 = load i32, i32* %7, align 4
  %231 = add nsw i32 %230, 1
  %232 = sext i32 %231 to i64
  %233 = getelementptr inbounds [100 x [20 x i8]], [100 x [20 x i8]]* %11, i64 0, i64 %232
  %234 = getelementptr inbounds [20 x i8], [20 x i8]* %233, i64 0, i64 0
  %235 = call i8* @strcpy(i8* %229, i8* %234) #5
  %236 = load i32, i32* %7, align 4
  %237 = add nsw i32 %236, 1
  %238 = sext i32 %237 to i64
  %239 = getelementptr inbounds [100 x [20 x i8]], [100 x [20 x i8]]* %11, i64 0, i64 %238
  %240 = getelementptr inbounds [20 x i8], [20 x i8]* %239, i64 0, i64 0
  %241 = load i32, i32* %7, align 4
  %242 = sext i32 %241 to i64
  %243 = getelementptr inbounds [100 x [20 x i8]], [100 x [20 x i8]]* %11, i64 0, i64 %242
  %244 = getelementptr inbounds [20 x i8], [20 x i8]* %243, i64 0, i64 0
  %245 = call i8* @strcpy(i8* %240, i8* %244) #5
  %246 = load i32, i32* %7, align 4
  %247 = sext i32 %246 to i64
  %248 = getelementptr inbounds [100 x [20 x i8]], [100 x [20 x i8]]* %11, i64 0, i64 %247
  %249 = getelementptr inbounds [20 x i8], [20 x i8]* %248, i64 0, i64 0
  %250 = getelementptr inbounds [20 x i8], [20 x i8]* %12, i64 0, i64 0
  %251 = call i8* @strcpy(i8* %249, i8* %250) #5
  br label %252

252:                                              ; preds = %211, %200
  br label %253

253:                                              ; preds = %252
  %254 = load i32, i32* %7, align 4
  %255 = add nsw i32 %254, 1
  store i32 %255, i32* %7, align 4
  br label %194

256:                                              ; preds = %194
  br label %257

257:                                              ; preds = %256
  %258 = load i32, i32* %6, align 4
  %259 = add nsw i32 %258, 1
  store i32 %259, i32* %6, align 4
  br label %189

260:                                              ; preds = %189
  %261 = getelementptr inbounds [100 x [20 x i8]], [100 x [20 x i8]]* %11, i64 0, i64 0
  %262 = getelementptr inbounds [20 x i8], [20 x i8]* %261, i64 0, i64 0
  %263 = call i32 (i8*, ...) @printf(i8* getelementptr inbounds ([3 x i8], [3 x i8]* @.str.1, i64 0, i64 0), i8* %262)
  ret i32 0
}